target datalayout = "e-m:e-p270:32:32-p271:32:32-p272:64:64-i64:64-i128:128-f80:128-n8:16:32:64-S128"
target triple = "x86_64-pc-linux-gnu"

@.str = private unnamed_addr constant [2 x i8] c"{\00", align 1
@stdout = external global ptr, align 8
@.str.1 = private unnamed_addr constant [3 x i8] c", \00", align 1
@.str.2 = private unnamed_addr constant [10 x i8] c"%2d}, // \00", align 1
@.str.3 = private unnamed_addr constant [8 x i8] c" = %3d\0A\00", align 1

; Function Attrs: nounwind uwtable
define void @Acec_GenerateNpnTable() #0 {
  %1 = alloca [256 x i32], align 16
  %2 = alloca [16 x i32], align 16
  %3 = alloca [256 x i32], align 16
  %4 = alloca i32, align 4
  %5 = alloca i32, align 4
  %6 = alloca i32, align 4
  call void @llvm.lifetime.start.p0(i64 1024, ptr %1) #7
  call void @llvm.lifetime.start.p0(i64 64, ptr %2) #7
  call void @llvm.lifetime.start.p0(i64 1024, ptr %3) #7
  call void @llvm.lifetime.start.p0(i64 4, ptr %4) #7
  call void @llvm.lifetime.start.p0(i64 4, ptr %5) #7
  call void @llvm.lifetime.start.p0(i64 4, ptr %6) #7
  store i32 0, ptr %6, align 4, !tbaa !3
  store i32 0, ptr %4, align 4, !tbaa !3
  br label %7

7:                                                ; preds = %16, %0
  %8 = load i32, ptr %4, align 4, !tbaa !3
  %9 = icmp slt i32 %8, 256
  br i1 %9, label %10, label %19

10:                                               ; preds = %7
  %11 = load i32, ptr %4, align 4, !tbaa !3
  %12 = call i32 @Extra_TruthCanonNPN(i32 noundef %11, i32 noundef 3)
  %13 = load i32, ptr %4, align 4, !tbaa !3
  %14 = sext i32 %13 to i64
  %15 = getelementptr inbounds [256 x i32], ptr %1, i64 0, i64 %14
  store i32 %12, ptr %15, align 4, !tbaa !3
  br label %16

16:                                               ; preds = %10
  %17 = load i32, ptr %4, align 4, !tbaa !3
  %18 = add nsw i32 %17, 1
  store i32 %18, ptr %4, align 4, !tbaa !3
  br label %7, !llvm.loop !7

19:                                               ; preds = %7
  store i32 0, ptr %4, align 4, !tbaa !3
  br label %20

20:                                               ; preds = %72, %19
  %21 = load i32, ptr %4, align 4, !tbaa !3
  %22 = icmp slt i32 %21, 256
  br i1 %22, label %23, label %75

23:                                               ; preds = %20
  %24 = call i32 (ptr, ...) @printf(ptr noundef @.str)
  %25 = load ptr, ptr @stdout, align 8, !tbaa !9
  %26 = load i32, ptr %4, align 4, !tbaa !3
  %27 = sext i32 %26 to i64
  %28 = getelementptr inbounds [256 x i32], ptr %1, i64 0, i64 %27
  call void @Extra_PrintHex(ptr noundef %25, ptr noundef %28, i32 noundef 3)
  %29 = call i32 (ptr, ...) @printf(ptr noundef @.str.1)
  store i32 0, ptr %5, align 4, !tbaa !3
  br label %30

30:                                               ; preds = %46, %23
  %31 = load i32, ptr %5, align 4, !tbaa !3
  %32 = load i32, ptr %6, align 4, !tbaa !3
  %33 = icmp slt i32 %31, %32
  br i1 %33, label %34, label %49

34:                                               ; preds = %30
  %35 = load i32, ptr %4, align 4, !tbaa !3
  %36 = sext i32 %35 to i64
  %37 = getelementptr inbounds [256 x i32], ptr %1, i64 0, i64 %36
  %38 = load i32, ptr %37, align 4, !tbaa !3
  %39 = load i32, ptr %5, align 4, !tbaa !3
  %40 = sext i32 %39 to i64
  %41 = getelementptr inbounds [16 x i32], ptr %2, i64 0, i64 %40
  %42 = load i32, ptr %41, align 4, !tbaa !3
  %43 = icmp eq i32 %38, %42
  br i1 %43, label %44, label %45

44:                                               ; preds = %34
  br label %49

45:                                               ; preds = %34
  br label %46

46:                                               ; preds = %45
  %47 = load i32, ptr %5, align 4, !tbaa !3
  %48 = add nsw i32 %47, 1
  store i32 %48, ptr %5, align 4, !tbaa !3
  br label %30, !llvm.loop !12

49:                                               ; preds = %44, %30
  %50 = load i32, ptr %5, align 4, !tbaa !3
  %51 = load i32, ptr %6, align 4, !tbaa !3
  %52 = icmp eq i32 %50, %51
  br i1 %52, label %53, label %62

53:                                               ; preds = %49
  %54 = load i32, ptr %4, align 4, !tbaa !3
  %55 = sext i32 %54 to i64
  %56 = getelementptr inbounds [256 x i32], ptr %1, i64 0, i64 %55
  %57 = load i32, ptr %56, align 4, !tbaa !3
  %58 = load i32, ptr %6, align 4, !tbaa !3
  %59 = add nsw i32 %58, 1
  store i32 %59, ptr %6, align 4, !tbaa !3
  %60 = sext i32 %58 to i64
  %61 = getelementptr inbounds [16 x i32], ptr %2, i64 0, i64 %60
  store i32 %57, ptr %61, align 4, !tbaa !3
  br label %62

62:                                               ; preds = %53, %49
  %63 = load i32, ptr %5, align 4, !tbaa !3
  %64 = load i32, ptr %4, align 4, !tbaa !3
  %65 = sext i32 %64 to i64
  %66 = getelementptr inbounds [256 x i32], ptr %3, i64 0, i64 %65
  store i32 %63, ptr %66, align 4, !tbaa !3
  %67 = load i32, ptr %5, align 4, !tbaa !3
  %68 = call i32 (ptr, ...) @printf(ptr noundef @.str.2, i32 noundef %67)
  %69 = load ptr, ptr @stdout, align 8, !tbaa !9
  call void @Extra_PrintHex(ptr noundef %69, ptr noundef %4, i32 noundef 3)
  %70 = load i32, ptr %4, align 4, !tbaa !3
  %71 = call i32 (ptr, ...) @printf(ptr noundef @.str.3, i32 noundef %70)
  br label %72

72:                                               ; preds = %62
  %73 = load i32, ptr %4, align 4, !tbaa !3
  %74 = add nsw i32 %73, 1
  store i32 %74, ptr %4, align 4, !tbaa !3
  br label %20, !llvm.loop !13

75:                                               ; preds = %20
  call void @llvm.lifetime.end.p0(i64 4, ptr %6) #7
  call void @llvm.lifetime.end.p0(i64 4, ptr %5) #7
  call void @llvm.lifetime.end.p0(i64 4, ptr %4) #7
  call void @llvm.lifetime.end.p0(i64 1024, ptr %3) #7
  call void @llvm.lifetime.end.p0(i64 64, ptr %2) #7
  call void @llvm.lifetime.end.p0(i64 1024, ptr %1) #7
  ret void
}