; Function Attrs: nounwind uwtable
define void @Acec_GenerateNpnTable() local_unnamed_addr #0 {
  %1 = alloca [256 x i32], align 16
  %2 = alloca [16 x i32], align 16
  %3 = alloca i32, align 4
  call void @llvm.lifetime.start.p0(i64 1024, ptr nonnull %1) #8
  call void @llvm.lifetime.start.p0(i64 64, ptr nonnull %2) #8
  call void @llvm.lifetime.start.p0(i64 4, ptr nonnull %3) #8
  br label %4

.preheader:                                       ; preds = %4
  store i32 0, ptr %3, align 4, !tbaa !3
  br label %8

4:                                                ; preds = %0, %4
  %indvars.iv = phi i64 [ 0, %0 ], [ %indvars.iv.next, %4 ]
  %5 = trunc nuw nsw i64 %indvars.iv to i32
  %6 = tail call i32 @Extra_TruthCanonNPN(i32 noundef %5, i32 noundef 3) #8
  %7 = getelementptr inbounds nuw [256 x i32], ptr %1, i64 0, i64 %indvars.iv
  store i32 %6, ptr %7, align 4, !tbaa !3
  %indvars.iv.next = add nuw nsw i64 %indvars.iv, 1
  %exitcond.not = icmp eq i64 %indvars.iv.next, 256
  br i1 %exitcond.not, label %.preheader, label %4, !llvm.loop !7

8:                                                ; preds = %.preheader, %33
  %.016 = phi i32 [ 0, %.preheader ], [ %.1, %33 ]
  %putchar = call i32 @putchar(i32 123)
  %9 = load ptr, ptr @stdout, align 8, !tbaa !9
  %10 = load i32, ptr %3, align 4, !tbaa !3
  %11 = sext i32 %10 to i64
  %12 = getelementptr inbounds [256 x i32], ptr %1, i64 0, i64 %11
  call void @Extra_PrintHex(ptr noundef %9, ptr noundef nonnull %12, i32 noundef 3) #8
  %13 = call i32 (ptr, ...) @printf(ptr noundef nonnull dereferenceable(1) @.str.1)
  %14 = icmp sgt i32 %.016, 0
  br i1 %14, label %.lr.ph, label %._crit_edge

.lr.ph:                                           ; preds = %8
  %15 = load i32, ptr %3, align 4, !tbaa !3
  %16 = sext i32 %15 to i64
  %17 = getelementptr inbounds [256 x i32], ptr %1, i64 0, i64 %16
  %18 = load i32, ptr %17, align 4, !tbaa !3
  %wide.trip.count = zext nneg i32 %.016 to i64
  br label %19

19:                                               ; preds = %.lr.ph, %23
  %indvars.iv18 = phi i64 [ 0, %.lr.ph ], [ %indvars.iv.next19, %23 ]
  %20 = getelementptr inbounds nuw [16 x i32], ptr %2, i64 0, i64 %indvars.iv18
  %21 = load i32, ptr %20, align 4, !tbaa !3
  %22 = icmp eq i32 %18, %21
  br i1 %22, label %._crit_edge.loopexit, label %23

23:                                               ; preds = %19
  %indvars.iv.next19 = add nuw nsw i64 %indvars.iv18, 1
  %exitcond21.not = icmp eq i64 %indvars.iv.next19, %wide.trip.count
  br i1 %exitcond21.not, label %._crit_edge.thread, label %19, !llvm.loop !12

._crit_edge.loopexit:                             ; preds = %19
  %24 = trunc nuw nsw i64 %indvars.iv18 to i32
  br label %._crit_edge

._crit_edge:                                      ; preds = %._crit_edge.loopexit, %8
  %.09.lcssa = phi i32 [ 0, %8 ], [ %24, %._crit_edge.loopexit ]
  %25 = icmp eq i32 %.09.lcssa, %.016
  br i1 %25, label %._crit_edge.thread, label %33

._crit_edge.thread:                               ; preds = %23, %._crit_edge
  %.09.lcssa24 = phi i32 [ %.09.lcssa, %._crit_edge ], [ %.016, %23 ]
  %26 = load i32, ptr %3, align 4, !tbaa !3
  %27 = sext i32 %26 to i64
  %28 = getelementptr inbounds [256 x i32], ptr %1, i64 0, i64 %27
  %29 = load i32, ptr %28, align 4, !tbaa !3
  %30 = add nsw i32 %.016, 1
  %31 = sext i32 %.016 to i64
  %32 = getelementptr inbounds [16 x i32], ptr %2, i64 0, i64 %31
  store i32 %29, ptr %32, align 4, !tbaa !3
  br label %33

33:                                               ; preds = %._crit_edge.thread, %._crit_edge
  %.09.lcssa23 = phi i32 [ %.09.lcssa24, %._crit_edge.thread ], [ %.09.lcssa, %._crit_edge ]
  %.1 = phi i32 [ %30, %._crit_edge.thread ], [ %.016, %._crit_edge ]
  %34 = call i32 (ptr, ...) @printf(ptr noundef nonnull dereferenceable(1) @.str.2, i32 noundef %.09.lcssa23)
  %35 = load ptr, ptr @stdout, align 8, !tbaa !9
  call void @Extra_PrintHex(ptr noundef %35, ptr noundef nonnull %3, i32 noundef 3) #8
  %36 = load i32, ptr %3, align 4, !tbaa !3
  %37 = call i32 (ptr, ...) @printf(ptr noundef nonnull dereferenceable(1) @.str.3, i32 noundef %36)
  %38 = load i32, ptr %3, align 4, !tbaa !3
  %39 = add nsw i32 %38, 1
  store i32 %39, ptr %3, align 4, !tbaa !3
  %40 = icmp slt i32 %38, 255
  br i1 %40, label %8, label %41, !llvm.loop !13

41:                                               ; preds = %33
  call void @llvm.lifetime.end.p0(i64 4, ptr nonnull %3) #8
  call void @llvm.lifetime.end.p0(i64 64, ptr nonnull %2) #8
  call void @llvm.lifetime.end.p0(i64 1024, ptr nonnull %1) #8
  ret void
}